; Function Attrs: nounwind uwtable
define internal fastcc i32 @_modify_assocs(ptr noundef readonly captures(none) %0, ptr readonly captures(none) %.8.val, ptr noundef captures(none) initializes((0, 8)) %1) unnamed_addr #0 {
  %3 = alloca %struct.dbd_list_msg_t, align 8
  call void @llvm.lifetime.start.p0(i64 16, ptr nonnull %3) #10
  %4 = getelementptr inbounds nuw i8, ptr %3, i64 8
  store i64 0, ptr %4, align 8
  %5 = tail call i32 @get_log_level() #10
  %6 = icmp sgt i32 %5, 5
  br i1 %6, label %7, label %11

7:                                                ; preds = %2
  %8 = load ptr, ptr %0, align 8
  %9 = getelementptr inbounds nuw i8, ptr %8, i64 60
  %10 = load i32, ptr %9, align 4
  tail call void (i32, ptr, ...) @log_var(i32 noundef 6, ptr noundef nonnull @.str.102, i32 noundef %10) #10
  br label %11

11:                                               ; preds = %7, %2
  %12 = getelementptr inbounds nuw i8, ptr %0, i64 56
  %13 = load ptr, ptr %12, align 8
  %14 = load ptr, ptr %0, align 8
  %15 = getelementptr inbounds nuw i8, ptr %14, i64 8
  %16 = load i32, ptr %15, align 8
  %17 = load ptr, ptr %.8.val, align 8
  %18 = getelementptr inbounds nuw i8, ptr %.8.val, i64 8
  %19 = load ptr, ptr %18, align 8
  %20 = tail call ptr @acct_storage_g_modify_assocs(ptr noundef %13, i32 noundef %16, ptr noundef %17, ptr noundef %19) #10
  store ptr %20, ptr %3, align 8
  %.not = icmp eq ptr %20, null
  %21 = tail call ptr @__errno_location() #12
  %22 = load i32, ptr %21, align 4
  br i1 %.not, label %.thread, label %23

23:                                               ; preds = %11
  %.not22 = icmp eq i32 %22, 0
  br i1 %.not22, label %50, label %24

24:                                               ; preds = %23
  %25 = tail call i32 @list_count(ptr noundef nonnull %20) #10
  %.not25 = icmp eq i32 %25, 0
  br i1 %.not25, label %.thread, label %26

26:                                               ; preds = %24
  %27 = load i32, ptr %21, align 4
  %28 = icmp eq i32 %27, 7011
  br i1 %28, label %_internal_rc_to_str.exit.thread, label %.thread

_internal_rc_to_str.exit.thread:                  ; preds = %26
  %29 = tail call ptr @list_peek(ptr noundef nonnull %20) #10
  %30 = load ptr, ptr %0, align 8
  %31 = tail call ptr @slurm_persist_make_rc_msg(ptr noundef %30, i32 noundef %22, ptr noundef %29, i16 noundef zeroext 1429) #10
  store ptr %31, ptr %1, align 8
  br label %49

.thread:                                          ; preds = %11, %26, %24
  %32 = load ptr, ptr %0, align 8
  %33 = getelementptr inbounds nuw i8, ptr %32, i64 60
  %34 = load i32, ptr %33, align 4
  switch i32 %22, label %43 [
    i32 1900, label %35
    i32 2002, label %45
    i32 -1, label %39
    i32 7000, label %40
    i32 2067, label %42
  ]

35:                                               ; preds = %.thread
  %36 = tail call i32 @get_log_level() #10
  %37 = icmp sgt i32 %36, 5
  br i1 %37, label %38, label %_internal_rc_to_str.exit

38:                                               ; preds = %35
  tail call void (i32, ptr, ...) @log_var(i32 noundef 6, ptr noundef nonnull @.str.16, i32 noundef %34, ptr noundef nonnull @.str.15) #10
  br label %_internal_rc_to_str.exit

39:                                               ; preds = %.thread
  br label %45

40:                                               ; preds = %.thread
  %41 = tail call ptr @slurm_strerror(i32 noundef 7000) #10
  br label %45

42:                                               ; preds = %.thread
  br label %45

43:                                               ; preds = %.thread
  %44 = tail call ptr @slurm_strerror(i32 noundef %22) #10
  %.not.i = icmp eq ptr %44, null
  %spec.store.select1.i = select i1 %.not.i, ptr @.str.24, ptr %44
  br label %45

45:                                               ; preds = %.thread, %43, %42, %40, %39
  %.1.i = phi ptr [ @.str.22, %39 ], [ %41, %40 ], [ @.str.23, %42 ], [ %spec.store.select1.i, %43 ], [ @.str.21, %.thread ]
  %46 = tail call i32 (ptr, ...) @error(ptr noundef nonnull @.str.16, i32 noundef %34, ptr noundef %.1.i) #10
  br label %_internal_rc_to_str.exit

_internal_rc_to_str.exit:                         ; preds = %45, %38, %35
  %.0 = phi ptr [ @.str.15, %35 ], [ @.str.15, %38 ], [ %.1.i, %45 ]
  %47 = load ptr, ptr %0, align 8
  %48 = tail call ptr @slurm_persist_make_rc_msg(ptr noundef %47, i32 noundef %22, ptr noundef %.0, i16 noundef zeroext 1429) #10
  store ptr %48, ptr %1, align 8
  br i1 %.not, label %58, label %49

49:                                               ; preds = %_internal_rc_to_str.exit.thread, %_internal_rc_to_str.exit
  tail call void @list_destroy(ptr noundef nonnull %20) #10
  br label %58

50:                                               ; preds = %23
  %51 = tail call ptr @init_buf(i32 noundef 1024) #10
  store ptr %51, ptr %1, align 8
  tail call void @pack16(i16 noundef zeroext 1422, ptr noundef %51) #10
  %52 = load ptr, ptr %0, align 8
  %53 = getelementptr inbounds nuw i8, ptr %52, i64 168
  %54 = load i16, ptr %53, align 8
  %55 = load ptr, ptr %1, align 8
  call void @slurmdbd_pack_list_msg(ptr noundef nonnull %3, i16 noundef zeroext %54, i32 noundef 1422, ptr noundef %55) #10
  %56 = load ptr, ptr %3, align 8
  %.not23 = icmp eq ptr %56, null
  br i1 %.not23, label %58, label %57

57:                                               ; preds = %50
  call void @list_destroy(ptr noundef nonnull %56) #10
  br label %58

58:                                               ; preds = %50, %57, %_internal_rc_to_str.exit, %49
  %.018 = phi i32 [ %22, %49 ], [ %22, %_internal_rc_to_str.exit ], [ 0, %57 ], [ 0, %50 ]
  call void @llvm.lifetime.end.p0(i64 16, ptr nonnull %3) #10
  ret i32 %.018
}